target datalayout = "e-m:e-p270:32:32-p271:32:32-p272:64:64-i64:64-i128:128-f80:128-n8:16:32:64-S128"
target triple = "x86_64-pc-linux-gnu"

%struct.nghttp2_session = type { %struct.nghttp2_map, %struct.nghttp2_outbound_queue, %struct.nghttp2_outbound_queue, %struct.nghttp2_outbound_queue, [8 x %struct.anon], %struct.nghttp2_active_outbound_item, %struct.nghttp2_inbound_frame, %struct.nghttp2_hd_deflater, %struct.nghttp2_hd_inflater, %struct.nghttp2_session_callbacks, %struct.nghttp2_mem, ptr, ptr, %struct.nghttp2_ratelim, i64, i64, i64, i64, i64, i64, i64, i64, i64, i64, i64, i64, i64, i64, i32, i32, i32, i32, i32, i32, i32, i32, i32, i32, i32, i32, i8, %struct.nghttp2_settings_storage, %struct.nghttp2_settings_storage, i32, i32, i32, i8, i8, i8, i8, i8, i8, [32 x i8] }
%struct.nghttp2_map = type { ptr, ptr, i64, i64 }
%struct.nghttp2_outbound_queue = type { ptr, ptr, i64 }
%struct.anon = type { %struct.nghttp2_pq }
%struct.nghttp2_pq = type { ptr, ptr, i64, i64, ptr }
%struct.nghttp2_active_outbound_item = type { ptr, %struct.nghttp2_bufs, i32 }
%struct.nghttp2_bufs = type { ptr, ptr, ptr, i64, i64, i64, i64, i64 }
%struct.nghttp2_inbound_frame = type { %union.nghttp2_frame, %union.nghttp2_ext_frame_payload, ptr, %struct.nghttp2_buf, %struct.nghttp2_buf, ptr, i64, i64, i64, i64, i32, [32 x i8] }
%union.nghttp2_frame = type { %struct.nghttp2_headers }
%struct.nghttp2_headers = type { %struct.nghttp2_frame_hd, i64, %struct.nghttp2_priority_spec, ptr, i64, i32 }
%struct.nghttp2_frame_hd = type { i64, i32, i8, i8, i8 }
%struct.nghttp2_priority_spec = type { i32, i32, i8 }
%union.nghttp2_ext_frame_payload = type { %struct.nghttp2_ext_altsvc }
%struct.nghttp2_ext_altsvc = type { ptr, i64, ptr, i64 }
%struct.nghttp2_buf = type { ptr, ptr, ptr, ptr, ptr }
%struct.nghttp2_hd_deflater = type { %struct.nghttp2_hd_context, %struct.nghttp2_hd_map, i64, i64, i8 }
%struct.nghttp2_hd_context = type { %struct.nghttp2_hd_ringbuf, ptr, i64, i64, i32, i8 }
%struct.nghttp2_hd_ringbuf = type { ptr, i64, i64, i64 }
%struct.nghttp2_hd_map = type { [128 x ptr] }
%struct.nghttp2_hd_inflater = type { %struct.nghttp2_hd_context, %struct.nghttp2_hd_huff_decode_context, %struct.nghttp2_buf, %struct.nghttp2_buf, ptr, ptr, ptr, ptr, i64, i64, i64, i64, i64, i32, i32, i8, i8, i8 }
%struct.nghttp2_hd_huff_decode_context = type { i16 }
%struct.nghttp2_session_callbacks = type { ptr, ptr, ptr, ptr, ptr, ptr, ptr, ptr, ptr, ptr, ptr, ptr, ptr, ptr, ptr, ptr, ptr, ptr, ptr, ptr, ptr, ptr, ptr, ptr, ptr, ptr, ptr, ptr }
%struct.nghttp2_mem = type { ptr, ptr, ptr, ptr, ptr }
%struct.nghttp2_ratelim = type { i64, i64, i64, i64 }
%struct.nghttp2_settings_storage = type { i32, i32, i32, i32, i32, i32, i32, i32 }
%struct.nghttp2_outbound_item = type { %union.nghttp2_frame, %union.nghttp2_ext_frame_payload, %union.nghttp2_aux_data, i64, ptr, i8 }
%union.nghttp2_aux_data = type { %struct.nghttp2_headers_aux_data }
%struct.nghttp2_headers_aux_data = type { %struct.nghttp2_data_provider_wrap, ptr, i32, i8 }
%struct.nghttp2_data_provider_wrap = type { i32, %union.anon }
%union.anon = type { %struct.anon.0 }
%struct.anon.0 = type { %union.nghttp2_data_source, ptr }
%union.nghttp2_data_source = type { ptr }

; Function Attrs: nounwind uwtable
define i32 @nghttp2_submit_push_promise(ptr noundef %0, i8 noundef zeroext %1, i32 noundef %2, ptr noundef %3, i64 noundef %4, ptr noundef %5) #0 {
  %7 = alloca i32, align 4
  %8 = alloca ptr, align 8
  %9 = alloca i8, align 1
  %10 = alloca i32, align 4
  %11 = alloca ptr, align 8
  %12 = alloca i64, align 8
  %13 = alloca ptr, align 8
  %14 = alloca ptr, align 8
  %15 = alloca ptr, align 8
  %16 = alloca ptr, align 8
  %17 = alloca i8, align 1
  %18 = alloca i32, align 4
  %19 = alloca i32, align 4
  %20 = alloca ptr, align 8
  %21 = alloca i32, align 4
  store ptr %0, ptr %8, align 8, !tbaa !3
  store i8 %1, ptr %9, align 1, !tbaa !13
  store i32 %2, ptr %10, align 4, !tbaa !8
  store ptr %3, ptr %11, align 8, !tbaa !10
  store i64 %4, ptr %12, align 8, !tbaa !11
  store ptr %5, ptr %13, align 8, !tbaa !10
  call void @llvm.lifetime.start.p0(i64 8, ptr %14) #7
  call void @llvm.lifetime.start.p0(i64 8, ptr %15) #7
  call void @llvm.lifetime.start.p0(i64 8, ptr %16) #7
  call void @llvm.lifetime.start.p0(i64 1, ptr %17) #7
  call void @llvm.lifetime.start.p0(i64 4, ptr %18) #7
  call void @llvm.lifetime.start.p0(i64 4, ptr %19) #7
  call void @llvm.lifetime.start.p0(i64 8, ptr %20) #7
  %22 = load ptr, ptr %8, align 8, !tbaa !3
  %23 = getelementptr inbounds nuw %struct.nghttp2_session, ptr %22, i32 0, i32 10
  store ptr %23, ptr %20, align 8, !tbaa !10
  %24 = load i32, ptr %10, align 4, !tbaa !8
  %25 = icmp sle i32 %24, 0
  br i1 %25, label %31, label %26

26:                                               ; preds = %6
  %27 = load ptr, ptr %8, align 8, !tbaa !3
  %28 = load i32, ptr %10, align 4, !tbaa !8
  %29 = call i32 @nghttp2_session_is_my_stream_id(ptr noundef %27, i32 noundef %28)
  %30 = icmp ne i32 %29, 0
  br i1 %30, label %31, label %32

31:                                               ; preds = %26, %6
  store i32 -501, ptr %7, align 4
  store i32 1, ptr %21, align 4
  br label %95

32:                                               ; preds = %26
  %33 = load ptr, ptr %8, align 8, !tbaa !3
  %34 = getelementptr inbounds nuw %struct.nghttp2_session, ptr %33, i32 0, i32 49
  %35 = load i8, ptr %34, align 1, !tbaa !16
  %36 = icmp ne i8 %35, 0
  br i1 %36, label %38, label %37

37:                                               ; preds = %32
  store i32 -505, ptr %7, align 4
  store i32 1, ptr %21, align 4
  br label %95

38:                                               ; preds = %32
  %39 = load ptr, ptr %8, align 8, !tbaa !3
  %40 = getelementptr inbounds nuw %struct.nghttp2_session, ptr %39, i32 0, i32 28
  %41 = load i32, ptr %40, align 8, !tbaa !45
  %42 = icmp ugt i32 %41, 2147483647
  br i1 %42, label %43, label %44

43:                                               ; preds = %38
  store i32 -509, ptr %7, align 4
  store i32 1, ptr %21, align 4
  br label %95

44:                                               ; preds = %38
  %45 = load ptr, ptr %20, align 8, !tbaa !10
  %46 = call ptr @nghttp2_mem_malloc(ptr noundef %45, i64 noundef 160)
  store ptr %46, ptr %14, align 8, !tbaa !46
  %47 = load ptr, ptr %14, align 8, !tbaa !46
  %48 = icmp eq ptr %47, null
  br i1 %48, label %49, label %50

49:                                               ; preds = %44
  store i32 -901, ptr %7, align 4
  store i32 1, ptr %21, align 4
  br label %95

50:                                               ; preds = %44
  %51 = load ptr, ptr %14, align 8, !tbaa !46
  call void @nghttp2_outbound_item_init(ptr noundef %51)
  %52 = load ptr, ptr %13, align 8, !tbaa !10
  %53 = load ptr, ptr %14, align 8, !tbaa !46
  %54 = getelementptr inbounds nuw %struct.nghttp2_outbound_item, ptr %53, i32 0, i32 2
  %55 = getelementptr inbounds nuw %struct.nghttp2_headers_aux_data, ptr %54, i32 0, i32 1
  store ptr %52, ptr %55, align 8, !tbaa !13
  %56 = load ptr, ptr %14, align 8, !tbaa !46
  %57 = getelementptr inbounds nuw %struct.nghttp2_outbound_item, ptr %56, i32 0, i32 0
  store ptr %57, ptr %15, align 8, !tbaa !10
  %58 = load ptr, ptr %11, align 8, !tbaa !10
  %59 = load i64, ptr %12, align 8, !tbaa !11
  %60 = load ptr, ptr %20, align 8, !tbaa !10
  %61 = call i32 @nghttp2_nv_array_copy(ptr noundef %16, ptr noundef %58, i64 noundef %59, ptr noundef %60)
  store i32 %61, ptr %19, align 4, !tbaa !8
  %62 = load i32, ptr %19, align 4, !tbaa !8
  %63 = icmp slt i32 %62, 0
  br i1 %63, label %64, label %68

64:                                               ; preds = %50
  %65 = load ptr, ptr %20, align 8, !tbaa !10
  %66 = load ptr, ptr %14, align 8, !tbaa !46
  call void @nghttp2_mem_free(ptr noundef %65, ptr noundef %66)
  %67 = load i32, ptr %19, align 4, !tbaa !8
  store i32 %67, ptr %7, align 4
  store i32 1, ptr %21, align 4
  br label %95

68:                                               ; preds = %50
  store i8 4, ptr %17, align 1, !tbaa !13
  %69 = load ptr, ptr %8, align 8, !tbaa !3
  %70 = getelementptr inbounds nuw %struct.nghttp2_session, ptr %69, i32 0, i32 28
  %71 = load i32, ptr %70, align 8, !tbaa !45
  store i32 %71, ptr %18, align 4, !tbaa !8
  %72 = load ptr, ptr %8, align 8, !tbaa !3
  %73 = getelementptr inbounds nuw %struct.nghttp2_session, ptr %72, i32 0, i32 28
  %74 = load i32, ptr %73, align 8, !tbaa !45
  %75 = add i32 %74, 2
  store i32 %75, ptr %73, align 8, !tbaa !45
  %76 = load ptr, ptr %15, align 8, !tbaa !10
  %77 = load i8, ptr %17, align 1, !tbaa !13
  %78 = load i32, ptr %10, align 4, !tbaa !8
  %79 = load i32, ptr %18, align 4, !tbaa !8
  %80 = load ptr, ptr %16, align 8, !tbaa !10
  %81 = load i64, ptr %12, align 8, !tbaa !11
  call void @nghttp2_frame_push_promise_init(ptr noundef %76, i8 noundef zeroext %77, i32 noundef %78, i32 noundef %79, ptr noundef %80, i64 noundef %81)
  %82 = load ptr, ptr %8, align 8, !tbaa !3
  %83 = load ptr, ptr %14, align 8, !tbaa !46
  %84 = call i32 @nghttp2_session_add_item(ptr noundef %82, ptr noundef %83)
  store i32 %84, ptr %19, align 4, !tbaa !8
  %85 = load i32, ptr %19, align 4, !tbaa !8
  %86 = icmp ne i32 %85, 0
  br i1 %86, label %87, label %93

87:                                               ; preds = %68
  %88 = load ptr, ptr %15, align 8, !tbaa !10
  %89 = load ptr, ptr %20, align 8, !tbaa !10
  call void @nghttp2_frame_push_promise_free(ptr noundef %88, ptr noundef %89)
  %90 = load ptr, ptr %20, align 8, !tbaa !10
  %91 = load ptr, ptr %14, align 8, !tbaa !46
  call void @nghttp2_mem_free(ptr noundef %90, ptr noundef %91)
  %92 = load i32, ptr %19, align 4, !tbaa !8
  store i32 %92, ptr %7, align 4
  store i32 1, ptr %21, align 4
  br label %95

93:                                               ; preds = %68
  %94 = load i32, ptr %18, align 4, !tbaa !8
  store i32 %94, ptr %7, align 4
  store i32 1, ptr %21, align 4
  br label %95

95:                                               ; preds = %93, %87, %64, %49, %43, %37, %31
  call void @llvm.lifetime.end.p0(i64 8, ptr %20) #7
  call void @llvm.lifetime.end.p0(i64 4, ptr %19) #7
  call void @llvm.lifetime.end.p0(i64 4, ptr %18) #7
  call void @llvm.lifetime.end.p0(i64 1, ptr %17) #7
  call void @llvm.lifetime.end.p0(i64 8, ptr %16) #7
  call void @llvm.lifetime.end.p0(i64 8, ptr %15) #7
  call void @llvm.lifetime.end.p0(i64 8, ptr %14) #7
  %96 = load i32, ptr %7, align 4
  ret i32 %96
}