; Function Attrs: nounwind uwtable
define i32 @nghttp2_submit_push_promise(ptr noundef %0, i8 noundef zeroext %1, i32 noundef %2, ptr noundef %3, i64 noundef %4, ptr noundef %5) local_unnamed_addr #0 {
  %7 = alloca ptr, align 8
  call void @llvm.lifetime.start.p0(i64 8, ptr nonnull %7) #8
  %8 = getelementptr inbounds nuw i8, ptr %0, i64 2344
  %9 = icmp slt i32 %2, 1
  br i1 %9, label %32, label %10

10:                                               ; preds = %6
  %11 = tail call i32 @nghttp2_session_is_my_stream_id(ptr noundef %0, i32 noundef %2) #8
  %.not = icmp eq i32 %11, 0
  br i1 %.not, label %12, label %32

12:                                               ; preds = %10
  %13 = getelementptr inbounds nuw i8, ptr %0, i64 2675
  %14 = load i8, ptr %13, align 1, !tbaa !39
  %.not39 = icmp eq i8 %14, 0
  br i1 %.not39, label %32, label %15

15:                                               ; preds = %12
  %16 = getelementptr inbounds nuw i8, ptr %0, i64 2544
  %17 = load i32, ptr %16, align 8, !tbaa !11
  %18 = icmp slt i32 %17, 0
  br i1 %18, label %32, label %19

19:                                               ; preds = %15
  %20 = tail call ptr @nghttp2_mem_malloc(ptr noundef nonnull %8, i64 noundef 160) #8
  %21 = icmp eq ptr %20, null
  br i1 %21, label %32, label %22

22:                                               ; preds = %19
  tail call void @nghttp2_outbound_item_init(ptr noundef nonnull %20) #8
  %23 = getelementptr inbounds nuw i8, ptr %20, i64 120
  store ptr %5, ptr %23, align 8, !tbaa !7
  %24 = call i32 @nghttp2_nv_array_copy(ptr noundef nonnull %7, ptr noundef %3, i64 noundef %4, ptr noundef nonnull %8) #8
  %25 = icmp slt i32 %24, 0
  br i1 %25, label %.sink.split, label %26

26:                                               ; preds = %22
  %27 = load i32, ptr %16, align 8, !tbaa !11
  %28 = add i32 %27, 2
  store i32 %28, ptr %16, align 8, !tbaa !11
  %29 = load ptr, ptr %7, align 8, !tbaa !3
  call void @nghttp2_frame_push_promise_init(ptr noundef nonnull %20, i8 noundef zeroext 4, i32 noundef %2, i32 noundef %27, ptr noundef %29, i64 noundef %4) #8
  %30 = call i32 @nghttp2_session_add_item(ptr noundef nonnull %0, ptr noundef nonnull %20) #8
  %.not40 = icmp eq i32 %30, 0
  br i1 %.not40, label %32, label %31

31:                                               ; preds = %26
  call void @nghttp2_frame_push_promise_free(ptr noundef nonnull %20, ptr noundef nonnull %8) #8
  br label %.sink.split

.sink.split:                                      ; preds = %22, %31
  %.0.ph = phi i32 [ %30, %31 ], [ %24, %22 ]
  call void @nghttp2_mem_free(ptr noundef nonnull %8, ptr noundef nonnull %20) #8
  br label %32

32:                                               ; preds = %.sink.split, %26, %19, %15, %12, %6, %10
  %.0 = phi i32 [ -501, %10 ], [ -501, %6 ], [ -505, %12 ], [ -509, %15 ], [ -901, %19 ], [ %27, %26 ], [ %.0.ph, %.sink.split ]
  call void @llvm.lifetime.end.p0(i64 8, ptr nonnull %7) #8
  ret i32 %.0
}